target datalayout = "e-m:e-p270:32:32-p271:32:32-p272:64:64-i64:64-i128:128-f80:128-n8:16:32:64-S128"
target triple = "x86_64-pc-linux-gnu"

%struct.Gia_ManTranStochParam = type { ptr, i32, i32, i32, i32, i32, i32, i32, i32, i32, i32, i32, ptr, i32, i32, i32, ptr, i32, ptr }

; Function Attrs: nounwind uwtable
define ptr @Gia_ManTranStochWorkerThread(ptr noundef %0) #0 {
  %2 = alloca ptr, align 8
  %3 = alloca ptr, align 8
  %4 = alloca ptr, align 8
  store ptr %0, ptr %2, align 8, !tbaa !82
  call void @llvm.lifetime.start.p0(i64 8, ptr %3) #10
  %5 = load ptr, ptr %2, align 8, !tbaa !82
  store ptr %5, ptr %3, align 8, !tbaa !40
  call void @llvm.lifetime.start.p0(i64 8, ptr %4) #10
  %6 = load ptr, ptr %3, align 8, !tbaa !40
  %7 = getelementptr inbounds nuw %struct.Gia_ManTranStochParam, ptr %6, i32 0, i32 17
  store ptr %7, ptr %4, align 8, !tbaa !83
  br label %8

8:                                                ; preds = %21, %1
  br label %9

9:                                                ; preds = %8
  br label %10

10:                                               ; preds = %14, %9
  %11 = load ptr, ptr %4, align 8, !tbaa !83
  %12 = load volatile i32, ptr %11, align 4, !tbaa !45
  %13 = icmp eq i32 %12, 0
  br i1 %13, label %14, label %15

14:                                               ; preds = %10
  br label %10, !llvm.loop !84

15:                                               ; preds = %10
  %16 = load ptr, ptr %3, align 8, !tbaa !40
  %17 = getelementptr inbounds nuw %struct.Gia_ManTranStochParam, ptr %16, i32 0, i32 0
  %18 = load ptr, ptr %17, align 8, !tbaa !75
  %19 = icmp eq ptr %18, null
  br i1 %19, label %20, label %21

20:                                               ; preds = %15
  call void @pthread_exit(ptr noundef null) #11
  unreachable

21:                                               ; preds = %15
  %22 = load ptr, ptr %3, align 8, !tbaa !40
  %23 = getelementptr inbounds nuw %struct.Gia_ManTranStochParam, ptr %22, i32 0, i32 15
  %24 = load i32, ptr %23, align 8, !tbaa !85
  %25 = load ptr, ptr %3, align 8, !tbaa !40
  %26 = getelementptr inbounds nuw %struct.Gia_ManTranStochParam, ptr %25, i32 0, i32 4
  %27 = load i32, ptr %26, align 4, !tbaa !80
  %28 = add nsw i32 %24, %27
  %29 = mul nsw i32 1234, %28
  %30 = load ptr, ptr %3, align 8, !tbaa !40
  %31 = getelementptr inbounds nuw %struct.Gia_ManTranStochParam, ptr %30, i32 0, i32 1
  store i32 %29, ptr %31, align 8, !tbaa !49
  %32 = load ptr, ptr %3, align 8, !tbaa !40
  %33 = call ptr @Gia_ManTranStochOpt2(ptr noundef %32)
  %34 = load ptr, ptr %3, align 8, !tbaa !40
  %35 = getelementptr inbounds nuw %struct.Gia_ManTranStochParam, ptr %34, i32 0, i32 16
  store ptr %33, ptr %35, align 8, !tbaa !86
  %36 = load ptr, ptr %3, align 8, !tbaa !40
  %37 = getelementptr inbounds nuw %struct.Gia_ManTranStochParam, ptr %36, i32 0, i32 17
  store i32 0, ptr %37, align 8, !tbaa !42
  br label %8
}