; Function Attrs: noreturn nounwind uwtable
define noalias noundef nonnull ptr @Gia_ManTranStochWorkerThread(ptr noundef %0) #5 {
  %2 = getelementptr inbounds nuw i8, ptr %0, i64 88
  %3 = getelementptr inbounds nuw i8, ptr %0, i64 72
  %4 = getelementptr inbounds nuw i8, ptr %0, i64 20
  %5 = getelementptr inbounds nuw i8, ptr %0, i64 8
  %6 = getelementptr inbounds nuw i8, ptr %0, i64 80
  br label %7

7:                                                ; preds = %.backedge, %1
  %8 = load volatile i32, ptr %2, align 4, !tbaa !67
  %9 = icmp eq i32 %8, 0
  br i1 %9, label %.backedge, label %10

.backedge:                                        ; preds = %7, %14
  br label %7, !llvm.loop !68

10:                                               ; preds = %7
  %11 = load ptr, ptr %0, align 8, !tbaa !60
  %12 = icmp eq ptr %11, null
  br i1 %12, label %13, label %14

13:                                               ; preds = %10
  tail call void @pthread_exit(ptr noundef null) #15
  unreachable

14:                                               ; preds = %10
  %15 = load i32, ptr %3, align 8, !tbaa !69
  %16 = load i32, ptr %4, align 4, !tbaa !65
  %17 = add nsw i32 %16, %15
  %18 = mul nsw i32 %17, 1234
  store i32 %18, ptr %5, align 8, !tbaa !53
  %19 = tail call ptr @Gia_ManTranStochOpt2(ptr noundef nonnull %0)
  store ptr %19, ptr %6, align 8, !tbaa !70
  store i32 0, ptr %2, align 8, !tbaa !26
  br label %.backedge
}